; Function Attrs: mustprogress nounwind uwtable
define hidden void @_ZN2cv12WMByteStreamD0Ev(ptr noundef nonnull align 8 dereferenceable(64) initializes((0, 8)) %0) unnamed_addr #4 align 2 personality ptr @__gxx_personality_v0 {
  store ptr getelementptr inbounds nuw inrange(-16, 64) (i8, ptr @_ZTVN2cv11WBaseStreamE, i64 16), ptr %0, align 8, !tbaa !19
  %2 = getelementptr inbounds nuw i8, ptr %0, i64 48
  %3 = load i8, ptr %2, align 8, !tbaa !51, !range !12, !noundef !13
  %4 = trunc nuw i8 %3 to i1
  br i1 %4, label %5, label %.noexc.i

5:                                                ; preds = %1
  %6 = invoke noundef zeroext i1 @_ZN2cv11WBaseStream10writeBlockEv(ptr noundef nonnull align 8 dereferenceable(64) %0)
          to label %.noexc.i unwind label %16

.noexc.i:                                         ; preds = %5, %1
  %7 = getelementptr inbounds nuw i8, ptr %0, i64 40
  %8 = load ptr, ptr %7, align 8, !tbaa !46
  %.not.i.i = icmp eq ptr %8, null
  br i1 %.not.i.i, label %11, label %9

9:                                                ; preds = %.noexc.i
  %10 = tail call i32 @fclose(ptr noundef nonnull %8)
  store ptr null, ptr %7, align 8, !tbaa !46
  br label %11

11:                                               ; preds = %9, %.noexc.i
  %12 = getelementptr inbounds nuw i8, ptr %0, i64 56
  store ptr null, ptr %12, align 8, !tbaa !52
  store i8 0, ptr %2, align 8, !tbaa !51
  %13 = load ptr, ptr %0, align 8, !tbaa !19
  %14 = getelementptr inbounds nuw i8, ptr %13, i64 48
  %15 = load ptr, ptr %14, align 8
  invoke void %15(ptr noundef nonnull align 8 dereferenceable(64) %0)
          to label %_ZN2cv11WBaseStreamD2Ev.exit unwind label %16

16:                                               ; preds = %11, %5
  %17 = landingpad { ptr, i32 }
          catch ptr null
  %18 = extractvalue { ptr, i32 } %17, 0
  tail call void @__clang_call_terminate(ptr %18) #21
  unreachable

_ZN2cv11WBaseStreamD2Ev.exit:                     ; preds = %11
  tail call void @_ZdlPv(ptr noundef nonnull %0) #23
  ret void
}